target datalayout = "e-m:e-p270:32:32-p271:32:32-p272:64:64-i64:64-i128:128-f80:128-n8:16:32:64-S128"
target triple = "x86_64-pc-linux-gnu"

%struct.evp_pkey_method_st = type { i32, i32, ptr, ptr, ptr, ptr, ptr, ptr, ptr, ptr, ptr, ptr, ptr, ptr, ptr, ptr, ptr, ptr, ptr, ptr, ptr, ptr, ptr, ptr, ptr, ptr, ptr, ptr, ptr, ptr, ptr, ptr, ptr }
%struct.evp_pkey_ctx_st = type { i32, ptr, ptr, ptr, ptr, %union.anon, %struct.anon.4, ptr, ptr, ptr, i32, i32, ptr, ptr, ptr, ptr, ptr, i8, ptr }
%union.anon = type { %struct.anon.0 }
%struct.anon.0 = type { ptr, ptr }
%struct.anon.4 = type { ptr, ptr, i64, i8 }

; Function Attrs: nounwind uwtable
define i32 @EVP_PKEY_CTX_str2ctrl(ptr noundef %0, i32 noundef %1, ptr noundef %2) #0 {
  %4 = alloca i32, align 4
  %5 = alloca ptr, align 8
  %6 = alloca i32, align 4
  %7 = alloca ptr, align 8
  %8 = alloca i64, align 8
  %9 = alloca i32, align 4
  store ptr %0, ptr %5, align 8, !tbaa !18
  store i32 %1, ptr %6, align 4, !tbaa !3
  store ptr %2, ptr %7, align 8, !tbaa !33
  call void @llvm.lifetime.start.p0(i64 8, ptr %8) #8
  %10 = load ptr, ptr %7, align 8, !tbaa !33
  %11 = call i64 @strlen(ptr noundef %10) #9
  store i64 %11, ptr %8, align 8, !tbaa !77
  %12 = load i64, ptr %8, align 8, !tbaa !77
  %13 = icmp ugt i64 %12, 2147483647
  br i1 %13, label %14, label %15

14:                                               ; preds = %3
  store i32 -1, ptr %4, align 4
  store i32 1, ptr %9, align 4
  br label %27

15:                                               ; preds = %3
  %16 = load ptr, ptr %5, align 8, !tbaa !18
  %17 = getelementptr inbounds nuw %struct.evp_pkey_ctx_st, ptr %16, i32 0, i32 12
  %18 = load ptr, ptr %17, align 8, !tbaa !55
  %19 = getelementptr inbounds nuw %struct.evp_pkey_method_st, ptr %18, i32 0, i32 25
  %20 = load ptr, ptr %19, align 8, !tbaa !118
  %21 = load ptr, ptr %5, align 8, !tbaa !18
  %22 = load i32, ptr %6, align 4, !tbaa !3
  %23 = load i64, ptr %8, align 8, !tbaa !77
  %24 = trunc i64 %23 to i32
  %25 = load ptr, ptr %7, align 8, !tbaa !33
  %26 = call i32 %20(ptr noundef %21, i32 noundef %22, i32 noundef %24, ptr noundef %25)
  store i32 %26, ptr %4, align 4
  store i32 1, ptr %9, align 4
  br label %27

27:                                               ; preds = %15, %14
  call void @llvm.lifetime.end.p0(i64 8, ptr %8) #8
  %28 = load i32, ptr %4, align 4
  ret i32 %28
}