; Function Attrs: nounwind uwtable
define i32 @EVP_PKEY_CTX_str2ctrl(ptr noundef %0, i32 noundef %1, ptr noundef %2) local_unnamed_addr #0 {
  %4 = tail call i64 @strlen(ptr noundef nonnull dereferenceable(1) %2) #11
  %5 = icmp ugt i64 %4, 2147483647
  br i1 %5, label %13, label %6

6:                                                ; preds = %3
  %7 = getelementptr inbounds nuw i8, ptr %0, i64 120
  %8 = load ptr, ptr %7, align 8, !tbaa !46
  %9 = getelementptr inbounds nuw i8, ptr %8, i64 192
  %10 = load ptr, ptr %9, align 8, !tbaa !106
  %11 = trunc nuw nsw i64 %4 to i32
  %12 = tail call i32 %10(ptr noundef %0, i32 noundef %1, i32 noundef %11, ptr noundef nonnull %2) #10
  br label %13

13:                                               ; preds = %3, %6
  %.0 = phi i32 [ %12, %6 ], [ -1, %3 ]
  ret i32 %.0
}